Certificate:
    Data:
        Version: 3 (0x2)
        Serial Number: 3 (0x3)
    Signature Algorithm: sha256WithRSAEncryption
        Issuer: C=ES, O=PPC, CN=ca.ppc.es
        Validity
            Not Before: Nov 28 12:00:05 2018 GMT
            Not After : Nov 28 12:00:05 2019 GMT
        Subject: C=ES, O=PPC, CN=www.ppc.es
        Subject Public Key Info:
            Public Key Algorithm: rsaEncryption
                Public-Key: (2048 bit)
                Modulus:
                    00:cc:63:68:bc:12:cb:fd:e3:53:a6:03:e2:80:94:
                    ff:91:4f:2f:9a:c2:88:ba:0a:9c:1d:46:a7:be:c6:
                    5c:60:92:76:34:95:6d:7a:47:17:fe:3f:f8:2d:7b:
                    06:68:9e:97:fb:f2:64:02:bd:10:fd:63:f4:67:ab:
                    35:19:2f:21:f2:7d:f8:8b:da:42:57:07:29:51:92:
                    02:f0:a8:b4:ae:ef:0d:cb:cc:03:4d:9e:b3:09:de:
                    99:09:40:44:3f:66:38:e1:54:fe:c4:f3:44:3f:5b:
                    48:8d:e9:c1:89:e3:ed:ec:5b:64:4d:53:40:6c:cd:
                    ef:fe:a9:8f:bf:ea:ca:00:fb:22:c0:40:81:ea:71:
                    94:3e:6e:c0:e4:4d:06:13:72:de:2a:ed:0f:e8:ed:
                    2f:47:da:ea:3b:fb:1c:1a:39:71:4a:50:36:f8:d0:
                    3f:b9:e5:87:f6:27:ad:51:97:82:4c:46:51:a6:99:
                    0b:95:60:26:11:79:2a:f2:23:36:ae:a5:f6:9d:b7:
                    9c:34:ca:ba:cd:64:f2:48:ae:7c:f4:2b:ba:c6:dc:
                    51:fd:aa:97:84:20:e6:66:c3:aa:a2:a7:b1:3c:e9:
                    19:13:51:98:72:a0:b5:b6:b7:13:43:38:47:86:06:
                    bd:e6:69:b6:a8:40:58:c1:d7:10:97:3c:37:9b:ca:
                    27:8b
                Exponent: 65537 (0x10001)
        X509v3 extensions:
            X509v3 Basic Constraints: 
                CA:FALSE
            Netscape Comment: 
                OpenSSL Generated Certificate
            X509v3 Subject Key Identifier: 
                B4:68:4B:E0:61:64:AC:20:65:1F:8B:84:84:E7:6E:F9:A2:AD:90:87
            X509v3 Authority Key Identifier: 
                keyid:8F:AC:3F:5C:FD:5B:8C:F5:6D:10:B1:C7:9B:9F:C1:E1:EE:7E:FD:FA

    Signature Algorithm: sha256WithRSAEncryption
         59:d5:4c:1f:91:eb:0f:32:5c:2b:fb:f4:0c:a5:0e:f3:31:4a:
         54:19:2a:a3:19:be:bb:30:c9:ea:38:79:ca:a1:10:c9:27:f7:
         d9:c4:a0:fd:46:6e:db:b9:6b:02:50:fc:2f:c1:1f:a2:52:02:
         e0:3a:42:8a:25:e9:f6:b2:38:5a:a4:72:28:da:4b:10:bf:45:
         be:08:14:3a:b4:7f:38:7e:03:50:5b:3e:89:6e:e4:cc:92:19:
         58:40:42:bd:e2:84:73:93:08:bc:a9:27:de:2d:76:d5:a2:99:
         11:cb:0d:94:54:cb:29:43:72:59:c6:cb:4e:05:44:b0:3c:12:
         13:fe:39:40:d2:f0:e5:1d:4d:79:0c:63:d6:c2:51:65:94:3c:
         9f:57:8c:3f:a5:56:66:24:08:fa:ad:8b:61:7f:81:be:33:83:
         2a:44:7e:ac:77:f3:46:7c:99:81:fc:bb:ad:a7:e1:09:35:d0:
         ab:53:e2:49:6b:ab:57:df:08:d1:a3:77:b9:80:13:51:a9:e5:
         eb:db:ac:36:05:95:64:2e:d2:f4:d2:a3:44:04:26:78:b9:41:
         c6:7b:53:7f:e1:11:df:dc:07:1e:e2:29:82:8e:90:cb:84:97:
         f5:d0:e7:28:d0:20:a7:30:8a:34:d0:cf:a3:ee:93:0c:a4:5f:
         f0:1f:df:81
-----BEGIN CERTIFICATE-----
MIIDVTCCAj2gAwIBAgIBAzANBgkqhkiG9w0BAQsFADAvMQswCQYDVQQGEwJFUzEM
MAoGA1UECgwDUFBDMRIwEAYDVQQDDAljYS5wcGMuZXMwHhcNMTgxMTI4MTIwMDA1
WhcNMTkxMTI4MTIwMDA1WjAwMQswCQYDVQQGEwJFUzEMMAoGA1UECgwDUFBDMRMw
EQYDVQQDDAp3d3cucHBjLmVzMIIBIjANBgkqhkiG9w0BAQEFAAOCAQ8AMIIBCgKC
AQEAzGNovBLL/eNTpgPigJT/kU8vmsKIugqcHUanvsZcYJJ2NJVtekcX/j/4LXsG
aJ6X+/JkAr0Q/WP0Z6s1GS8h8n34i9pCVwcpUZIC8Ki0ru8Ny8wDTZ6zCd6ZCUBE
P2Y44VT+xPNEP1tIjenBiePt7FtkTVNAbM3v/qmPv+rKAPsiwECB6nGUPm7A5E0G
E3LeKu0P6O0vR9rqO/scGjlxSlA2+NA/ueWH9ietUZeCTEZRppkLlWAmEXkq8iM2
rqX2nbecNMq6zWTySK589Cu6xtxR/aqXhCDmZsOqoqexPOkZE1GYcqC1trcTQzhH
hga95mm2qEBYwdcQlzw3m8oniwIDAQABo3sweTAJBgNVHRMEAjAAMCwGCWCGSAGG
+EIBDQQfFh1PcGVuU1NMIEdlbmVyYXRlZCBDZXJ0aWZpY2F0ZTAdBgNVHQ4EFgQU
tGhL4GFkrCBlH4uEhOdu+aKtkIcwHwYDVR0jBBgwFoAUj6w/XP1bjPVtELHHm5/B
4e5+/fowDQYJKoZIhvcNAQELBQADggEBAFnVTB+R6w8yXCv79AylDvMxSlQZKqMZ
vrswyeo4ecqhEMkn99nEoP1Gbtu5awJQ/C/BH6JSAuA6Qool6fayOFqkcijaSxC/
Rb4IFDq0fzh+A1BbPolu5MySGVhAQr3ihHOTCLypJ94tdtWimRHLDZRUyylDclnG
y04FRLA8EhP+OUDS8OUdTXkMY9bCUWWUPJ9XjD+lVmYkCPqti2F/gb4zgypEfqx3
80Z8mYH8u62n4Qk10KtT4klrq1ffCNGjd7mAE1Gp5evbrDYFlWQu0vTSo0QEJni5
QcZ7U3/hEd/cBx7iKYKOkMuEl/XQ5yjQIKcwijTQz6PukwykX/Af34E=
-----END CERTIFICATE-----
