Certificate:
    Data:
        Version: 3 (0x2)
        Serial Number: 6 (0x6)
    Signature Algorithm: sha256WithRSAEncryption
        Issuer: C=ES, O=PPC, CN=ca.ppc.es
        Validity
            Not Before: Dec 20 12:29:15 2018 GMT
            Not After : Dec 20 12:29:15 2019 GMT
        Subject: C=ES, O=PPC, CN=rest.ppc.es
        Subject Public Key Info:
            Public Key Algorithm: rsaEncryption
                Public-Key: (2048 bit)
                Modulus:
                    00:e3:36:66:ee:38:8b:83:9b:4e:e6:59:24:44:35:
                    c6:53:ae:c6:97:ff:73:4a:f8:6c:8f:f0:ad:59:98:
                    89:0f:2b:42:30:f4:83:ea:ba:dc:79:30:65:34:36:
                    a3:c1:bc:33:5b:95:1b:1c:13:8b:6a:f6:b3:62:d7:
                    51:fd:6f:57:fa:fa:bf:4f:85:ac:63:c8:4e:92:d5:
                    b4:bb:89:69:46:20:94:8f:67:47:d3:75:10:8e:96:
                    2f:b2:87:93:c0:9b:90:98:d2:fd:59:be:1f:49:e1:
                    09:2e:d4:d9:f5:52:1c:18:32:de:65:9a:27:f7:a0:
                    98:1f:73:c5:5c:7c:18:c0:5d:3b:86:74:83:81:59:
                    5f:ca:c2:3f:fc:f2:29:44:5c:26:ff:c8:42:49:c8:
                    21:dc:4d:c9:16:7f:67:47:d6:82:25:b3:81:6a:10:
                    75:f3:5a:54:77:fe:9e:8c:dd:da:b7:0b:94:80:04:
                    c7:0d:6c:d4:c7:33:45:9f:91:1e:29:d5:76:6c:77:
                    38:3b:79:b2:15:9c:d5:c8:ad:84:4e:b1:8d:0f:41:
                    a7:f2:ce:83:23:a5:6a:b1:75:b3:e4:80:4e:41:e6:
                    71:78:d1:d5:e7:0b:15:bf:04:6e:ea:22:30:e8:4c:
                    78:e3:b0:0c:02:80:1f:ee:30:8c:6e:60:51:cb:2a:
                    5a:37
                Exponent: 65537 (0x10001)
        X509v3 extensions:
            X509v3 Basic Constraints: 
                CA:FALSE
            Netscape Comment: 
                OpenSSL Generated Certificate
            X509v3 Subject Key Identifier: 
                05:08:68:8D:9B:D5:5F:5E:07:3D:59:89:C8:2C:FF:95:4E:41:4B:FB
            X509v3 Authority Key Identifier: 
                keyid:8F:AC:3F:5C:FD:5B:8C:F5:6D:10:B1:C7:9B:9F:C1:E1:EE:7E:FD:FA

    Signature Algorithm: sha256WithRSAEncryption
         85:4e:25:0c:fe:f4:e1:d8:68:df:26:e5:bd:15:b9:96:dc:5a:
         4f:c9:21:98:f3:e4:42:3a:c3:4d:94:af:5f:fd:be:29:83:24:
         e2:aa:5f:d7:44:f4:5e:9d:e1:2a:7e:c2:4c:cb:38:ea:62:4b:
         55:91:dd:85:44:fa:b9:b5:85:6e:5a:bd:95:53:dc:70:8c:51:
         79:7d:a8:19:86:27:8f:07:64:8e:b0:6f:b5:e6:a9:ee:49:3d:
         1d:e9:80:4a:9f:96:6a:14:f7:95:4c:6e:9e:43:82:29:04:58:
         eb:3e:5e:b8:ab:bf:bf:1a:84:2a:fb:5b:71:a8:b7:b1:e8:d7:
         2d:1b:d7:cc:fc:40:4e:d1:11:5c:36:cb:fd:b3:02:51:11:cd:
         59:bc:61:4a:96:69:04:57:74:a6:fc:36:b6:fb:71:c1:b1:aa:
         ac:99:30:03:3d:b6:b9:fa:07:72:6a:40:51:86:fa:11:2a:e4:
         4b:cd:d7:ec:b6:71:e0:eb:b2:08:c4:5e:bb:b6:ad:7f:81:3e:
         11:e1:7f:20:2a:25:32:67:46:8a:8f:76:78:38:b3:72:a2:f7:
         16:ed:b4:b4:65:67:08:3c:e3:75:e4:e9:45:e9:6f:5f:bf:3a:
         73:cf:38:b2:85:44:06:8d:f1:3c:19:5e:fc:ac:5d:9e:74:ee:
         f3:72:81:f4
-----BEGIN CERTIFICATE-----
MIIDVjCCAj6gAwIBAgIBBjANBgkqhkiG9w0BAQsFADAvMQswCQYDVQQGEwJFUzEM
MAoGA1UECgwDUFBDMRIwEAYDVQQDDAljYS5wcGMuZXMwHhcNMTgxMjIwMTIyOTE1
WhcNMTkxMjIwMTIyOTE1WjAxMQswCQYDVQQGEwJFUzEMMAoGA1UECgwDUFBDMRQw
EgYDVQQDDAtyZXN0LnBwYy5lczCCASIwDQYJKoZIhvcNAQEBBQADggEPADCCAQoC
ggEBAOM2Zu44i4ObTuZZJEQ1xlOuxpf/c0r4bI/wrVmYiQ8rQjD0g+q63HkwZTQ2
o8G8M1uVGxwTi2r2s2LXUf1vV/r6v0+FrGPITpLVtLuJaUYglI9nR9N1EI6WL7KH
k8CbkJjS/Vm+H0nhCS7U2fVSHBgy3mWaJ/egmB9zxVx8GMBdO4Z0g4FZX8rCP/zy
KURcJv/IQknIIdxNyRZ/Z0fWgiWzgWoQdfNaVHf+nozd2rcLlIAExw1s1MczRZ+R
HinVdmx3ODt5shWc1cithE6xjQ9Bp/LOgyOlarF1s+SATkHmcXjR1ecLFb8Ebuoi
MOhMeOOwDAKAH+4wjG5gUcsqWjcCAwEAAaN7MHkwCQYDVR0TBAIwADAsBglghkgB
hvhCAQ0EHxYdT3BlblNTTCBHZW5lcmF0ZWQgQ2VydGlmaWNhdGUwHQYDVR0OBBYE
FAUIaI2b1V9eBz1Zicgs/5VOQUv7MB8GA1UdIwQYMBaAFI+sP1z9W4z1bRCxx5uf
weHufv36MA0GCSqGSIb3DQEBCwUAA4IBAQCFTiUM/vTh2GjfJuW9FbmW3FpPySGY
8+RCOsNNlK9f/b4pgyTiql/XRPReneEqfsJMyzjqYktVkd2FRPq5tYVuWr2VU9xw
jFF5fagZhiePB2SOsG+15qnuST0d6YBKn5ZqFPeVTG6eQ4IpBFjrPl64q7+/GoQq
+1txqLex6NctG9fM/EBO0RFcNsv9swJREc1ZvGFKlmkEV3Sm/Da2+3HBsaqsmTAD
Pba5+gdyakBRhvoRKuRLzdfstnHg67IIxF67tq1/gT4R4X8gKiUyZ0aKj3Z4OLNy
ovcW7bS0ZWcIPON15OlF6W9fvzpzzziyhUQGjfE8GV78rF2edO7zcoH0
-----END CERTIFICATE-----
