Certificate:
    Data:
        Version: 3 (0x2)
        Serial Number: 4 (0x4)
    Signature Algorithm: sha256WithRSAEncryption
        Issuer: C=ES, O=PPC, CN=ca.ppc.es
        Validity
            Not Before: Nov 28 12:00:36 2018 GMT
            Not After : Nov 28 12:00:36 2019 GMT
        Subject: C=ES, O=PPC, CN=cliente.ppc.es
        Subject Public Key Info:
            Public Key Algorithm: rsaEncryption
                Public-Key: (2048 bit)
                Modulus:
                    00:f0:66:04:d6:dc:72:f0:b7:21:4f:e9:4c:e9:a7:
                    30:00:e0:03:d6:a8:39:f9:18:40:c7:a2:c4:17:84:
                    6f:ba:e6:41:37:15:06:58:25:a8:0b:40:ab:f8:26:
                    f7:ac:04:1a:9b:26:4d:2e:41:b9:19:1a:d8:17:d4:
                    c0:67:fb:45:f6:a7:0c:94:a9:2b:25:2a:d4:6b:93:
                    db:20:57:b9:9e:65:26:0b:3f:d7:74:45:6f:25:10:
                    84:4c:97:9f:49:e7:5f:73:43:05:b8:14:dc:ff:39:
                    33:48:d5:b1:9a:94:9d:ee:9e:f3:c9:9f:e4:0d:c7:
                    60:fa:5b:0a:06:7f:77:d3:71:f7:29:8c:16:aa:25:
                    15:ca:13:4b:44:e5:f6:0f:f7:74:f8:6c:62:22:76:
                    79:a5:aa:0f:95:26:de:3c:2a:a6:cd:f4:32:a5:bd:
                    a7:96:6c:84:e7:dd:b4:19:de:4a:54:3b:4f:50:c8:
                    78:a2:43:e6:cb:d9:70:df:7a:26:6d:0b:9e:ed:45:
                    54:b5:16:30:05:f9:96:57:58:1a:e9:99:05:ed:da:
                    b0:aa:02:2c:f6:53:0c:b0:72:0a:2f:72:6f:49:32:
                    07:63:e4:f8:59:f5:f3:7a:c6:3f:b0:ef:38:59:32:
                    b2:e8:d7:7a:53:e3:c5:82:b3:b8:c6:eb:d8:6d:8a:
                    6c:ad
                Exponent: 65537 (0x10001)
        X509v3 extensions:
            X509v3 Basic Constraints: 
                CA:FALSE
            Netscape Comment: 
                OpenSSL Generated Certificate
            X509v3 Subject Key Identifier: 
                DA:B2:AE:23:CD:8C:51:8B:15:3D:08:58:E0:34:13:3F:FE:5C:8C:58
            X509v3 Authority Key Identifier: 
                keyid:8F:AC:3F:5C:FD:5B:8C:F5:6D:10:B1:C7:9B:9F:C1:E1:EE:7E:FD:FA

    Signature Algorithm: sha256WithRSAEncryption
         1e:ee:ce:cb:34:56:cd:6b:9e:57:93:de:39:3b:87:b0:5f:3e:
         99:64:91:8f:2a:72:1f:42:25:66:9a:5a:e2:c4:e7:26:8f:80:
         ec:2e:69:ca:8e:0c:7b:3e:fa:52:4a:2f:94:65:f1:a7:80:eb:
         e9:cd:0f:c6:58:bb:c7:02:50:46:8e:98:c1:61:78:6e:a5:1e:
         a9:e2:cb:0b:5a:dc:48:50:3a:39:3f:dd:20:2f:97:12:dd:73:
         03:52:2e:a0:03:ec:03:b5:10:8c:71:ad:df:93:e3:e2:58:62:
         43:fe:9b:74:5b:6b:16:08:73:dc:16:b6:24:97:1f:3b:9d:11:
         b8:b1:18:62:a9:4c:90:76:5c:57:7b:2d:48:7c:9d:7a:d2:84:
         7b:40:b4:3e:d1:33:44:47:6d:ea:78:15:ad:2b:b1:f6:2d:43:
         1f:fd:0e:02:1b:0b:01:48:ee:75:52:21:d4:36:a3:70:8e:9b:
         e4:ae:bd:ec:dc:c0:73:49:d2:25:fd:21:a8:79:62:3f:03:7c:
         dc:1d:13:99:b2:d9:85:a0:46:66:4f:4c:4d:85:69:88:e5:02:
         6a:bc:c1:4d:72:42:c0:93:19:e0:71:c2:71:95:fd:3a:ce:43:
         68:8b:a4:4a:99:64:5b:8d:53:1d:40:8d:6d:09:3f:05:21:71:
         5b:13:15:82
-----BEGIN CERTIFICATE-----
MIIDWTCCAkGgAwIBAgIBBDANBgkqhkiG9w0BAQsFADAvMQswCQYDVQQGEwJFUzEM
MAoGA1UECgwDUFBDMRIwEAYDVQQDDAljYS5wcGMuZXMwHhcNMTgxMTI4MTIwMDM2
WhcNMTkxMTI4MTIwMDM2WjA0MQswCQYDVQQGEwJFUzEMMAoGA1UECgwDUFBDMRcw
FQYDVQQDDA5jbGllbnRlLnBwYy5lczCCASIwDQYJKoZIhvcNAQEBBQADggEPADCC
AQoCggEBAPBmBNbccvC3IU/pTOmnMADgA9aoOfkYQMeixBeEb7rmQTcVBlglqAtA
q/gm96wEGpsmTS5BuRka2BfUwGf7RfanDJSpKyUq1GuT2yBXuZ5lJgs/13RFbyUQ
hEyXn0nnX3NDBbgU3P85M0jVsZqUne6e88mf5A3HYPpbCgZ/d9Nx9ymMFqolFcoT
S0Tl9g/3dPhsYiJ2eaWqD5Um3jwqps30MqW9p5ZshOfdtBneSlQ7T1DIeKJD5svZ
cN96Jm0Lnu1FVLUWMAX5lldYGumZBe3asKoCLPZTDLByCi9yb0kyB2Pk+Fn183rG
P7DvOFkysujXelPjxYKzuMbr2G2KbK0CAwEAAaN7MHkwCQYDVR0TBAIwADAsBglg
hkgBhvhCAQ0EHxYdT3BlblNTTCBHZW5lcmF0ZWQgQ2VydGlmaWNhdGUwHQYDVR0O
BBYEFNqyriPNjFGLFT0IWOA0Ez/+XIxYMB8GA1UdIwQYMBaAFI+sP1z9W4z1bRCx
x5ufweHufv36MA0GCSqGSIb3DQEBCwUAA4IBAQAe7s7LNFbNa55Xk945O4ewXz6Z
ZJGPKnIfQiVmmlrixOcmj4DsLmnKjgx7PvpSSi+UZfGngOvpzQ/GWLvHAlBGjpjB
YXhupR6p4ssLWtxIUDo5P90gL5cS3XMDUi6gA+wDtRCMca3fk+PiWGJD/pt0W2sW
CHPcFrYklx87nRG4sRhiqUyQdlxXey1IfJ160oR7QLQ+0TNER23qeBWtK7H2LUMf
/Q4CGwsBSO51UiHUNqNwjpvkrr3s3MBzSdIl/SGoeWI/A3zcHROZstmFoEZmT0xN
hWmI5QJqvMFNckLAkxngccJxlf06zkNoi6RKmWRbjVMdQI1tCT8FIXFbExWC
-----END CERTIFICATE-----
