Certificate:
    Data:
        Version: 3 (0x2)
        Serial Number: 5 (0x5)
    Signature Algorithm: sha256WithRSAEncryption
        Issuer: C=ES, O=PPC, CN=ca.ppc.es
        Validity
            Not Before: Dec 20 12:25:48 2018 GMT
            Not After : Dec 20 12:25:48 2019 GMT
        Subject: C=ES, O=PPC, CN=meteo.ppc.es
        Subject Public Key Info:
            Public Key Algorithm: rsaEncryption
                Public-Key: (2048 bit)
                Modulus:
                    00:9d:3b:49:c3:7f:f0:9f:2d:17:d8:67:dc:5f:50:
                    e3:e4:62:10:6e:37:5f:8e:cf:00:e2:f3:91:ea:9b:
                    a0:69:43:e6:f8:8a:59:c3:32:73:bd:f7:84:35:0a:
                    62:a8:ea:2d:62:3d:86:ea:19:c2:52:65:66:3a:4d:
                    f9:c0:57:45:e9:51:e6:37:16:30:64:12:b9:92:e2:
                    28:fa:0c:a7:3a:f9:56:48:1e:fa:1a:1f:ff:f5:e3:
                    b9:fb:b8:e1:a7:11:f1:d7:12:dc:fc:dc:77:ad:b9:
                    8c:af:8b:7f:e2:cb:43:6e:60:8d:97:bd:0e:41:79:
                    cf:76:02:98:91:e2:38:1d:d8:db:0e:ec:ed:4c:24:
                    04:43:63:e5:e3:4f:12:97:39:69:ee:bb:98:39:64:
                    5d:ca:1b:a5:b3:68:2f:c9:d5:0c:ad:f3:75:ce:ab:
                    a0:e9:5d:c4:c2:ad:69:9e:3a:d1:70:54:e8:4e:b2:
                    39:80:4e:34:97:9f:53:df:ef:69:cc:01:c8:32:36:
                    f2:88:48:7d:48:d0:64:75:bc:fc:8d:61:3c:e1:54:
                    5d:fe:bb:b3:ef:a8:aa:31:62:b2:70:d2:d3:f4:cf:
                    9d:ad:95:6f:8d:cc:7e:c3:d4:cf:6e:a1:ff:f1:bb:
                    eb:fe:dc:41:1a:85:34:06:58:d5:f5:ea:76:94:db:
                    ba:1f
                Exponent: 65537 (0x10001)
        X509v3 extensions:
            X509v3 Basic Constraints: 
                CA:FALSE
            Netscape Comment: 
                OpenSSL Generated Certificate
            X509v3 Subject Key Identifier: 
                C4:8F:A6:58:DC:6A:00:BA:02:7E:9F:EB:F7:7E:A8:F7:B0:FD:0B:E3
            X509v3 Authority Key Identifier: 
                keyid:8F:AC:3F:5C:FD:5B:8C:F5:6D:10:B1:C7:9B:9F:C1:E1:EE:7E:FD:FA

    Signature Algorithm: sha256WithRSAEncryption
         7c:21:a5:5a:44:b3:88:4b:70:b7:b6:32:2a:1f:d7:2d:70:aa:
         2d:d6:91:3c:fc:a6:1c:5c:94:9f:68:85:2b:d2:61:12:e6:8c:
         35:a0:a7:47:04:f3:46:36:48:34:5b:0e:ee:d4:b7:c9:9d:27:
         c3:83:68:b0:ba:1e:93:11:f5:d1:86:35:9a:cc:63:8b:39:a8:
         af:d5:b2:51:a3:8b:7c:76:1f:fd:0b:09:39:04:37:7d:94:13:
         16:b6:09:bd:7e:5f:75:a5:83:af:94:0b:5a:54:4e:8b:7f:59:
         66:51:f5:81:30:b8:8e:1d:24:a4:af:17:9b:00:e0:76:13:2a:
         5b:c5:1a:e4:47:1f:10:43:c5:f3:f1:b7:a1:09:dc:a8:f2:50:
         34:b0:93:c0:98:f7:71:1c:85:43:b9:ec:5b:aa:f5:fe:86:c6:
         3a:d5:4a:03:2a:02:9a:9a:c0:4a:5b:93:8f:e6:ba:a9:2d:a5:
         a6:35:24:b3:18:dd:69:06:58:91:01:3e:fe:87:6d:09:d5:f6:
         44:a5:2d:7b:f0:1a:39:76:c4:ba:e4:b7:dd:10:5b:f9:ce:08:
         d1:25:04:74:e2:65:54:69:26:5a:64:7b:6e:ed:f6:e4:71:51:
         8e:24:b0:82:64:fe:e9:e7:be:49:22:15:f2:cf:0f:05:6f:63:
         fd:fd:b4:22
-----BEGIN CERTIFICATE-----
MIIDVzCCAj+gAwIBAgIBBTANBgkqhkiG9w0BAQsFADAvMQswCQYDVQQGEwJFUzEM
MAoGA1UECgwDUFBDMRIwEAYDVQQDDAljYS5wcGMuZXMwHhcNMTgxMjIwMTIyNTQ4
WhcNMTkxMjIwMTIyNTQ4WjAyMQswCQYDVQQGEwJFUzEMMAoGA1UECgwDUFBDMRUw
EwYDVQQDDAxtZXRlby5wcGMuZXMwggEiMA0GCSqGSIb3DQEBAQUAA4IBDwAwggEK
AoIBAQCdO0nDf/CfLRfYZ9xfUOPkYhBuN1+OzwDi85Hqm6BpQ+b4ilnDMnO994Q1
CmKo6i1iPYbqGcJSZWY6TfnAV0XpUeY3FjBkErmS4ij6DKc6+VZIHvoaH//147n7
uOGnEfHXEtz83HetuYyvi3/iy0NuYI2XvQ5Bec92ApiR4jgd2NsO7O1MJARDY+Xj
TxKXOWnuu5g5ZF3KG6WzaC/J1Qyt83XOq6DpXcTCrWmeOtFwVOhOsjmATjSXn1Pf
72nMAcgyNvKISH1I0GR1vPyNYTzhVF3+u7PvqKoxYrJw0tP0z52tlW+NzH7D1M9u
of/xu+v+3EEahTQGWNX16naU27ofAgMBAAGjezB5MAkGA1UdEwQCMAAwLAYJYIZI
AYb4QgENBB8WHU9wZW5TU0wgR2VuZXJhdGVkIENlcnRpZmljYXRlMB0GA1UdDgQW
BBTEj6ZY3GoAugJ+n+v3fqj3sP0L4zAfBgNVHSMEGDAWgBSPrD9c/VuM9W0Qsceb
n8Hh7n79+jANBgkqhkiG9w0BAQsFAAOCAQEAfCGlWkSziEtwt7YyKh/XLXCqLdaR
PPymHFyUn2iFK9JhEuaMNaCnRwTzRjZINFsO7tS3yZ0nw4NosLoekxH10YY1msxj
izmor9WyUaOLfHYf/QsJOQQ3fZQTFrYJvX5fdaWDr5QLWlROi39ZZlH1gTC4jh0k
pK8XmwDgdhMqW8Ua5EcfEEPF8/G3oQncqPJQNLCTwJj3cRyFQ7nsW6r1/obGOtVK
AyoCmprASluTj+a6qS2lpjUksxjdaQZYkQE+/odtCdX2RKUte/AaOXbEuuS33RBb
+c4I0SUEdOJlVGkmWmR7bu325HFRjiSwgmT+6ee+SSIV8s8PBW9j/f20Ig==
-----END CERTIFICATE-----
